; Function Attrs: nounwind uwtable
define dso_local ptr @find_ref_entry(ptr noundef %0, ptr noundef %1) local_unnamed_addr #0 {
  %3 = tail call fastcc ptr @find_containing_dir(ptr noundef %0, ptr noundef %1)
  %.not = icmp eq ptr %3, null
  br i1 %.not, label %search_ref_dir.exit.thread, label %4

4:                                                ; preds = %2
  %5 = tail call i64 @strlen(ptr noundef nonnull dereferenceable(1) %1) #12
  %6 = load i32, ptr %3, align 8, !tbaa !4
  %.not.i = icmp eq i32 %6, 0
  br i1 %.not.i, label %search_ref_dir.exit.thread, label %7

7:                                                ; preds = %4
  tail call fastcc void @sort_ref_dir(ptr noundef nonnull %3)
  %8 = getelementptr inbounds nuw i8, ptr %3, i64 24
  %9 = load ptr, ptr %8, align 8, !tbaa !13
  %10 = load i32, ptr %3, align 8, !tbaa !4
  %.not24.i.i = icmp eq i32 %10, 0
  br i1 %.not24.i.i, label %search_ref_dir.exit.thread, label %.lr.ph.i.preheader.i

.lr.ph.i.preheader.i:                             ; preds = %7
  %11 = sext i32 %10 to i64
  br label %.lr.ph.i.i

.lr.ph.i.i:                                       ; preds = %28, %.lr.ph.i.preheader.i
  %.01621.i.i = phi i64 [ %.1.i.i, %28 ], [ 0, %.lr.ph.i.preheader.i ]
  %.01720.i.i = phi i64 [ %.118.i.i, %28 ], [ %11, %.lr.ph.i.preheader.i ]
  %12 = add i64 %.01720.i.i, %.01621.i.i
  %13 = lshr i64 %12, 1
  %14 = shl i64 %13, 3
  %15 = getelementptr inbounds nuw i8, ptr %9, i64 %14
  %16 = load ptr, ptr %15, align 8, !tbaa !14
  %17 = getelementptr inbounds nuw i8, ptr %16, i64 56
  %18 = tail call i32 @strncmp(ptr noundef nonnull readonly %1, ptr noundef nonnull %17, i64 noundef %5) #12
  %.not.i13.i = icmp eq i32 %18, 0
  br i1 %.not.i13.i, label %19, label %ref_entry_cmp_sslice.exit.i

19:                                               ; preds = %.lr.ph.i.i
  %20 = getelementptr inbounds nuw [0 x i8], ptr %17, i64 0, i64 %5
  %21 = load i8, ptr %20, align 1, !tbaa !17
  %22 = zext i8 %21 to i32
  %23 = sub nsw i32 0, %22
  br label %ref_entry_cmp_sslice.exit.i

ref_entry_cmp_sslice.exit.i:                      ; preds = %19, %.lr.ph.i.i
  %.0.i14.i = phi i32 [ %23, %19 ], [ %18, %.lr.ph.i.i ]
  %24 = icmp slt i32 %.0.i14.i, 0
  br i1 %24, label %28, label %25

25:                                               ; preds = %ref_entry_cmp_sslice.exit.i
  %.not.i.i = icmp eq i32 %.0.i14.i, 0
  br i1 %.not.i.i, label %search_ref_dir.exit, label %26

26:                                               ; preds = %25
  %27 = add nuw i64 %13, 1
  br label %28

28:                                               ; preds = %26, %ref_entry_cmp_sslice.exit.i
  %.118.i.i = phi i64 [ %.01720.i.i, %26 ], [ %13, %ref_entry_cmp_sslice.exit.i ]
  %.1.i.i = phi i64 [ %27, %26 ], [ %.01621.i.i, %ref_entry_cmp_sslice.exit.i ]
  %29 = icmp ult i64 %.1.i.i, %.118.i.i
  br i1 %29, label %.lr.ph.i.i, label %search_ref_dir.exit.thread, !llvm.loop !28

search_ref_dir.exit:                              ; preds = %25
  %30 = and i64 %12, 8589934590
  %31 = icmp eq i64 %30, 8589934590
  br i1 %31, label %search_ref_dir.exit.thread, label %32

32:                                               ; preds = %search_ref_dir.exit
  %sext = shl i64 %13, 32
  %33 = ashr exact i64 %sext, 29
  %34 = getelementptr inbounds i8, ptr %9, i64 %33
  %35 = load ptr, ptr %34, align 8, !tbaa !14
  %36 = load i8, ptr %35, align 8, !tbaa !17
  %37 = and i8 %36, 16
  %.not13 = icmp eq i8 %37, 0
  %38 = select i1 %.not13, ptr %35, ptr null
  br label %search_ref_dir.exit.thread

search_ref_dir.exit.thread:                       ; preds = %28, %7, %4, %search_ref_dir.exit, %2, %32
  %.0 = phi ptr [ %38, %32 ], [ null, %2 ], [ null, %search_ref_dir.exit ], [ null, %4 ], [ null, %7 ], [ null, %28 ]
  ret ptr %.0
}